target datalayout = "e-m:e-p270:32:32-p271:32:32-p272:64:64-i64:64-i128:128-f80:128-n8:16:32:64-S128"
target triple = "x86_64-pc-linux-gnu"

%struct.lua_State = type { ptr, i8, i8, i8, i8, i16, %union.StkIdRel, ptr, ptr, %union.StkIdRel, %union.StkIdRel, ptr, %union.StkIdRel, ptr, ptr, ptr, %struct.CallInfo, ptr, i64, i32, i32, i32, i32, i32, %struct.anon.2 }
%union.StkIdRel = type { ptr }
%struct.CallInfo = type { %union.StkIdRel, %union.StkIdRel, ptr, ptr, %union.anon, %union.anon.1, i32 }
%union.anon = type { %struct.anon.0 }
%struct.anon.0 = type { ptr, i64, i64 }
%union.anon.1 = type { i32 }
%struct.anon.2 = type { i32, i32 }
%struct.TValue = type { %union.Value, i8 }
%union.Value = type { ptr }
%struct.GCObject = type { ptr, i8, i8 }
%struct.Udata = type { ptr, i8, i8, i16, i64, ptr, ptr, [1 x %union.UValue] }
%union.UValue = type { %struct.TValue }
%struct.Table = type { ptr, i8, i8, i8, i8, i32, ptr, ptr, ptr, ptr }
%struct.LClosure = type { ptr, i8, i8, i8, ptr, ptr, [1 x ptr] }
%struct.CClosure = type { ptr, i8, i8, i8, ptr, ptr, [1 x %struct.TValue] }
%struct.Proto = type { ptr, i8, i8, i8, i8, i8, i32, i32, i32, i32, i32, i32, i32, i32, i32, ptr, ptr, ptr, ptr, ptr, ptr, ptr, ptr, ptr }

; Function Attrs: nounwind uwtable
define internal ptr @getgclist(ptr noundef %0) #0 {
  %2 = alloca ptr, align 8
  %3 = alloca ptr, align 8
  %4 = alloca ptr, align 8
  store ptr %0, ptr %3, align 8, !tbaa !9
  %5 = load ptr, ptr %3, align 8, !tbaa !9
  %6 = getelementptr inbounds nuw %struct.GCObject, ptr %5, i32 0, i32 1
  %7 = load i8, ptr %6, align 8, !tbaa !35
  %8 = zext i8 %7 to i32
  switch i32 %8, label %28 [
    i32 5, label %9
    i32 6, label %12
    i32 38, label %15
    i32 8, label %18
    i32 10, label %21
    i32 7, label %24
  ]

9:                                                ; preds = %1
  %10 = load ptr, ptr %3, align 8, !tbaa !9
  %11 = getelementptr inbounds nuw %struct.Table, ptr %10, i32 0, i32 9
  store ptr %11, ptr %2, align 8
  br label %29

12:                                               ; preds = %1
  %13 = load ptr, ptr %3, align 8, !tbaa !9
  %14 = getelementptr inbounds nuw %struct.LClosure, ptr %13, i32 0, i32 4
  store ptr %14, ptr %2, align 8
  br label %29

15:                                               ; preds = %1
  %16 = load ptr, ptr %3, align 8, !tbaa !9
  %17 = getelementptr inbounds nuw %struct.CClosure, ptr %16, i32 0, i32 4
  store ptr %17, ptr %2, align 8
  br label %29

18:                                               ; preds = %1
  %19 = load ptr, ptr %3, align 8, !tbaa !9
  %20 = getelementptr inbounds nuw %struct.lua_State, ptr %19, i32 0, i32 13
  store ptr %20, ptr %2, align 8
  br label %29

21:                                               ; preds = %1
  %22 = load ptr, ptr %3, align 8, !tbaa !9
  %23 = getelementptr inbounds nuw %struct.Proto, ptr %22, i32 0, i32 23
  store ptr %23, ptr %2, align 8
  br label %29

24:                                               ; preds = %1
  call void @llvm.lifetime.start.p0(i64 8, ptr %4) #6
  %25 = load ptr, ptr %3, align 8, !tbaa !9
  store ptr %25, ptr %4, align 8, !tbaa !41
  %26 = load ptr, ptr %4, align 8, !tbaa !41
  %27 = getelementptr inbounds nuw %struct.Udata, ptr %26, i32 0, i32 6
  store ptr %27, ptr %2, align 8
  call void @llvm.lifetime.end.p0(i64 8, ptr %4) #6
  br label %29

28:                                               ; preds = %1
  store ptr null, ptr %2, align 8
  br label %29

29:                                               ; preds = %28, %24, %21, %18, %15, %12, %9
  %30 = load ptr, ptr %2, align 8
  ret ptr %30
}

; Function Attrs: nounwind uwtable
define internal ptr @correctgraylist(ptr noundef %0) #0 {
  %2 = alloca ptr, align 8
  %3 = alloca ptr, align 8
  %4 = alloca ptr, align 8
  %5 = alloca i32, align 4
  store ptr %0, ptr %2, align 8, !tbaa !52
  call void @llvm.lifetime.start.p0(i64 8, ptr %3) #6
  br label %6

6:                                                ; preds = %80, %1
  %7 = load ptr, ptr %2, align 8, !tbaa !52
  %8 = load ptr, ptr %7, align 8, !tbaa !9
  store ptr %8, ptr %3, align 8, !tbaa !9
  %9 = icmp ne ptr %8, null
  br i1 %9, label %10, label %81

10:                                               ; preds = %6
  call void @llvm.lifetime.start.p0(i64 8, ptr %4) #6
  %11 = load ptr, ptr %3, align 8, !tbaa !9
  %12 = call ptr @getgclist(ptr noundef %11)
  store ptr %12, ptr %4, align 8, !tbaa !52
  %13 = load ptr, ptr %3, align 8, !tbaa !9
  %14 = getelementptr inbounds nuw %struct.GCObject, ptr %13, i32 0, i32 2
  %15 = load i8, ptr %14, align 1, !tbaa !30
  %16 = zext i8 %15 to i32
  %17 = and i32 %16, 24
  %18 = icmp ne i32 %17, 0
  br i1 %18, label %19, label %20

19:                                               ; preds = %10
  br label %74

20:                                               ; preds = %10
  %21 = load ptr, ptr %3, align 8, !tbaa !9
  %22 = getelementptr inbounds nuw %struct.GCObject, ptr %21, i32 0, i32 2
  %23 = load i8, ptr %22, align 1, !tbaa !30
  %24 = zext i8 %23 to i32
  %25 = and i32 %24, 7
  %26 = icmp eq i32 %25, 5
  br i1 %26, label %27, label %43

27:                                               ; preds = %20
  %28 = load ptr, ptr %3, align 8, !tbaa !9
  %29 = getelementptr inbounds nuw %struct.GCObject, ptr %28, i32 0, i32 2
  %30 = load i8, ptr %29, align 1, !tbaa !30
  %31 = zext i8 %30 to i32
  %32 = or i32 %31, 32
  %33 = trunc i32 %32 to i8
  store i8 %33, ptr %29, align 1, !tbaa !30
  %34 = load ptr, ptr %3, align 8, !tbaa !9
  %35 = getelementptr inbounds nuw %struct.GCObject, ptr %34, i32 0, i32 2
  %36 = load i8, ptr %35, align 1, !tbaa !30
  %37 = zext i8 %36 to i32
  %38 = and i32 %37, -8
  %39 = or i32 %38, 6
  %40 = trunc i32 %39 to i8
  %41 = load ptr, ptr %3, align 8, !tbaa !9
  %42 = getelementptr inbounds nuw %struct.GCObject, ptr %41, i32 0, i32 2
  store i8 %40, ptr %42, align 1, !tbaa !30
  br label %78

43:                                               ; preds = %20
  %44 = load ptr, ptr %3, align 8, !tbaa !9
  %45 = getelementptr inbounds nuw %struct.GCObject, ptr %44, i32 0, i32 1
  %46 = load i8, ptr %45, align 8, !tbaa !35
  %47 = zext i8 %46 to i32
  %48 = icmp eq i32 %47, 8
  br i1 %48, label %49, label %50

49:                                               ; preds = %43
  br label %78

50:                                               ; preds = %43
  %51 = load ptr, ptr %3, align 8, !tbaa !9
  %52 = getelementptr inbounds nuw %struct.GCObject, ptr %51, i32 0, i32 2
  %53 = load i8, ptr %52, align 1, !tbaa !30
  %54 = zext i8 %53 to i32
  %55 = and i32 %54, 7
  %56 = icmp eq i32 %55, 6
  br i1 %56, label %57, label %67

57:                                               ; preds = %50
  %58 = load ptr, ptr %3, align 8, !tbaa !9
  %59 = getelementptr inbounds nuw %struct.GCObject, ptr %58, i32 0, i32 2
  %60 = load i8, ptr %59, align 1, !tbaa !30
  %61 = zext i8 %60 to i32
  %62 = and i32 %61, -8
  %63 = or i32 %62, 4
  %64 = trunc i32 %63 to i8
  %65 = load ptr, ptr %3, align 8, !tbaa !9
  %66 = getelementptr inbounds nuw %struct.GCObject, ptr %65, i32 0, i32 2
  store i8 %64, ptr %66, align 1, !tbaa !30
  br label %67

67:                                               ; preds = %57, %50
  %68 = load ptr, ptr %3, align 8, !tbaa !9
  %69 = getelementptr inbounds nuw %struct.GCObject, ptr %68, i32 0, i32 2
  %70 = load i8, ptr %69, align 1, !tbaa !30
  %71 = zext i8 %70 to i32
  %72 = or i32 %71, 32
  %73 = trunc i32 %72 to i8
  store i8 %73, ptr %69, align 1, !tbaa !30
  br label %74

74:                                               ; preds = %67, %19
  %75 = load ptr, ptr %4, align 8, !tbaa !52
  %76 = load ptr, ptr %75, align 8, !tbaa !9
  %77 = load ptr, ptr %2, align 8, !tbaa !52
  store ptr %76, ptr %77, align 8, !tbaa !9
  store i32 2, ptr %5, align 4
  br label %80

78:                                               ; preds = %49, %27
  %79 = load ptr, ptr %4, align 8, !tbaa !52
  store ptr %79, ptr %2, align 8, !tbaa !52
  store i32 2, ptr %5, align 4
  br label %80

80:                                               ; preds = %78, %74
  call void @llvm.lifetime.end.p0(i64 8, ptr %4) #6
  br label %6

81:                                               ; preds = %6
  %82 = load ptr, ptr %2, align 8, !tbaa !52
  store i32 1, ptr %5, align 4
  call void @llvm.lifetime.end.p0(i64 8, ptr %3) #6
  ret ptr %82
}