; Function Attrs: nofree norecurse nosync nounwind memory(readwrite, inaccessiblemem: none) uwtable
define internal fastcc ptr @correctgraylist(ptr noundef captures(ret: address, provenance) %0) unnamed_addr #5 {
  %2 = load ptr, ptr %0, align 8, !tbaa !46
  %.not19 = icmp eq ptr %2, null
  br i1 %.not19, label %._crit_edge, label %.lr.ph

.lr.ph:                                           ; preds = %1, %36
  %3 = phi ptr [ %37, %36 ], [ %2, %1 ]
  %.020 = phi ptr [ %.1, %36 ], [ %0, %1 ]
  %4 = getelementptr inbounds nuw i8, ptr %3, i64 8
  %5 = load i8, ptr %4, align 8, !tbaa !32
  switch i8 %5, label %getgclist.exit [
    i8 5, label %6
    i8 6, label %8
    i8 38, label %10
    i8 8, label %12
    i8 10, label %14
    i8 7, label %16
  ]

6:                                                ; preds = %.lr.ph
  %7 = getelementptr inbounds nuw i8, ptr %3, i64 40
  br label %getgclist.exit

8:                                                ; preds = %.lr.ph
  %9 = getelementptr inbounds nuw i8, ptr %3, i64 16
  br label %getgclist.exit

10:                                               ; preds = %.lr.ph
  %11 = getelementptr inbounds nuw i8, ptr %3, i64 16
  br label %getgclist.exit

12:                                               ; preds = %.lr.ph
  %13 = getelementptr inbounds nuw i8, ptr %3, i64 72
  br label %getgclist.exit

14:                                               ; preds = %.lr.ph
  %15 = getelementptr inbounds nuw i8, ptr %3, i64 120
  br label %getgclist.exit

16:                                               ; preds = %.lr.ph
  %17 = getelementptr inbounds nuw i8, ptr %3, i64 32
  br label %getgclist.exit

getgclist.exit:                                   ; preds = %.lr.ph, %6, %8, %10, %12, %14, %16
  %.0.i = phi ptr [ %17, %16 ], [ %15, %14 ], [ %13, %12 ], [ %11, %10 ], [ %9, %8 ], [ %7, %6 ], [ null, %.lr.ph ]
  %18 = getelementptr inbounds nuw i8, ptr %3, i64 9
  %19 = load i8, ptr %18, align 1, !tbaa !27
  %20 = zext i8 %19 to i32
  %21 = and i32 %20, 24
  %.not18 = icmp eq i32 %21, 0
  br i1 %.not18, label %22, label %34

22:                                               ; preds = %getgclist.exit
  %23 = and i32 %20, 7
  %24 = icmp eq i32 %23, 5
  br i1 %24, label %25, label %28

25:                                               ; preds = %22
  %26 = and i8 %19, -40
  %27 = or disjoint i8 %26, 38
  store i8 %27, ptr %18, align 1, !tbaa !27
  br label %thread-pre-split

28:                                               ; preds = %22
  %29 = icmp eq i8 %5, 8
  br i1 %29, label %thread-pre-split, label %30

30:                                               ; preds = %28
  %31 = icmp eq i32 %23, 6
  %32 = and i8 %19, -60
  %spec.select = select i1 %31, i8 %32, i8 %19
  %33 = or i8 %spec.select, 32
  store i8 %33, ptr %18, align 1, !tbaa !27
  br label %34

34:                                               ; preds = %getgclist.exit, %30
  %35 = load ptr, ptr %.0.i, align 8, !tbaa !46
  store ptr %35, ptr %.020, align 8, !tbaa !46
  br label %36

thread-pre-split:                                 ; preds = %28, %25
  %.pr = load ptr, ptr %.0.i, align 8, !tbaa !46
  br label %36

36:                                               ; preds = %thread-pre-split, %34
  %37 = phi ptr [ %.pr, %thread-pre-split ], [ %35, %34 ]
  %.1 = phi ptr [ %.0.i, %thread-pre-split ], [ %.020, %34 ]
  %.not = icmp eq ptr %37, null
  br i1 %.not, label %._crit_edge, label %.lr.ph

._crit_edge:                                      ; preds = %36, %1
  %.0.lcssa = phi ptr [ %0, %1 ], [ %.1, %36 ]
  ret ptr %.0.lcssa
}